target datalayout = "e-m:e-p270:32:32-p271:32:32-p272:64:64-i64:64-i128:128-f80:128-n8:16:32:64-S128"
target triple = "x86_64-pc-linux-gnu"

%struct.test_fixture = type { ptr, ptr }

@.str = private unnamed_addr constant [31 x i8] c"../openssl/test/cmp_ctx_test.c\00", align 1
@.str.41 = private unnamed_addr constant [32 x i8] c"test_CTX_set0_get0_statusString\00", align 1
@.str.62 = private unnamed_addr constant [17 x i8] c"ERR_peek_error()\00", align 1
@.str.63 = private unnamed_addr constant [2 x i8] c"0\00", align 1
@.str.65 = private unnamed_addr constant [43 x i8] c"getter did not return error on ctx == NULL\00", align 1
@.str.66 = private unnamed_addr constant [26 x i8] c"did not get default value\00", align 1
@.str.67 = private unnamed_addr constant [27 x i8] c"setting first value failed\00", align 1
@.str.68 = private unnamed_addr constant [34 x i8] c"set/get first value did not match\00", align 1
@.str.69 = private unnamed_addr constant [28 x i8] c"setting second value failed\00", align 1
@.str.70 = private unnamed_addr constant [27 x i8] c"second set reset the value\00", align 1
@.str.71 = private unnamed_addr constant [35 x i8] c"set/get second value did not match\00", align 1
@.str.72 = private unnamed_addr constant [26 x i8] c"third set reset the value\00", align 1
@.str.73 = private unnamed_addr constant [31 x i8] c"third get gave different value\00", align 1
@.str.74 = private unnamed_addr constant [4 x i8] c"res\00", align 1

; Function Attrs: inlinehint nounwind uwtable
define internal ptr @ossl_check_ASN1_UTF8STRING_sk_type(ptr noundef %0) #3 {
  %2 = alloca ptr, align 8
  store ptr %0, ptr %2, align 8, !tbaa !98
  %3 = load ptr, ptr %2, align 8, !tbaa !98
  ret ptr %3
}

; Function Attrs: nounwind uwtable
define internal void @tear_down(ptr noundef %0) #0 {
  %2 = alloca ptr, align 8
  store ptr %0, ptr %2, align 8, !tbaa !15
  %3 = load ptr, ptr %2, align 8, !tbaa !15
  %4 = icmp ne ptr %3, null
  br i1 %4, label %5, label %9

5:                                                ; preds = %1
  %6 = load ptr, ptr %2, align 8, !tbaa !15
  %7 = getelementptr inbounds nuw %struct.test_fixture, ptr %6, i32 0, i32 1
  %8 = load ptr, ptr %7, align 8, !tbaa !17
  call void @OSSL_CMP_CTX_free(ptr noundef %8)
  br label %9

9:                                                ; preds = %5, %1
  %10 = load ptr, ptr %2, align 8, !tbaa !15
  call void @CRYPTO_free(ptr noundef %10, ptr noundef @.str, i32 noundef 25)
  ret void
}

; Function Attrs: nounwind uwtable
define internal i32 @execute_CTX_set0_get0_statusString(ptr noundef %0) #0 {
  %2 = alloca ptr, align 8
  %3 = alloca ptr, align 8
  %4 = alloca ptr, align 8
  %5 = alloca ptr, align 8
  %6 = alloca ptr, align 8
  %7 = alloca ptr, align 8
  %8 = alloca ptr, align 8
  %9 = alloca ptr, align 8
  %10 = alloca ptr, align 8
  %11 = alloca ptr, align 8
  %12 = alloca ptr, align 8
  %13 = alloca i32, align 4
  store ptr %0, ptr %2, align 8, !tbaa !15
  call void @llvm.lifetime.start.p0(i64 8, ptr %3) #5
  %14 = load ptr, ptr %2, align 8, !tbaa !15
  %15 = getelementptr inbounds nuw %struct.test_fixture, ptr %14, i32 0, i32 1
  %16 = load ptr, ptr %15, align 8, !tbaa !17
  store ptr %16, ptr %3, align 8, !tbaa !11
  call void @llvm.lifetime.start.p0(i64 8, ptr %4) #5
  store ptr @ossl_cmp_ctx_set0_statusString, ptr %4, align 8, !tbaa !50
  call void @llvm.lifetime.start.p0(i64 8, ptr %5) #5
  store ptr @OSSL_CMP_CTX_get0_statusString, ptr %5, align 8, !tbaa !50
  call void @llvm.lifetime.start.p0(i64 8, ptr %6) #5
  %17 = call ptr @OPENSSL_sk_new_null()
  store ptr %17, ptr %6, align 8, !tbaa !98
  call void @llvm.lifetime.start.p0(i64 8, ptr %7) #5
  %18 = load ptr, ptr %6, align 8, !tbaa !98
  store ptr %18, ptr %7, align 8, !tbaa !98
  call void @llvm.lifetime.start.p0(i64 8, ptr %8) #5
  store ptr null, ptr %8, align 8, !tbaa !98
  call void @llvm.lifetime.start.p0(i64 8, ptr %9) #5
  %19 = call ptr @OPENSSL_sk_new_null()
  store ptr %19, ptr %9, align 8, !tbaa !98
  call void @llvm.lifetime.start.p0(i64 8, ptr %10) #5
  %20 = load ptr, ptr %9, align 8, !tbaa !98
  store ptr %20, ptr %10, align 8, !tbaa !98
  call void @llvm.lifetime.start.p0(i64 8, ptr %11) #5
  store ptr null, ptr %11, align 8, !tbaa !98
  call void @llvm.lifetime.start.p0(i64 8, ptr %12) #5
  store ptr null, ptr %12, align 8, !tbaa !98
  call void @llvm.lifetime.start.p0(i64 4, ptr %13) #5
  store i32 1, ptr %13, align 4, !tbaa !13
  %21 = call i64 @ERR_peek_error()
  %22 = trunc i64 %21 to i32
  %23 = call i32 @test_int_eq(ptr noundef @.str, i32 noundef 802, ptr noundef @.str.62, ptr noundef @.str.63, i32 noundef %22, i32 noundef 0)
  %24 = icmp ne i32 %23, 0
  br i1 %24, label %26, label %25

25:                                               ; preds = %1
  store i32 0, ptr %13, align 4, !tbaa !13
  br label %26

26:                                               ; preds = %25, %1
  call void @ERR_clear_error()
  %27 = load ptr, ptr %5, align 8, !tbaa !50
  %28 = call ptr %27(ptr noundef null)
  %29 = icmp ne ptr %28, null
  br i1 %29, label %33, label %30

30:                                               ; preds = %26
  %31 = call i64 @ERR_peek_error()
  %32 = icmp eq i64 %31, 0
  br i1 %32, label %33, label %34

33:                                               ; preds = %30, %26
  call void (ptr, i32, ptr, ...) @test_error(ptr noundef @.str, i32 noundef 802, ptr noundef @.str.65)
  store i32 0, ptr %13, align 4, !tbaa !13
  br label %34

34:                                               ; preds = %33, %30
  call void @ERR_clear_error()
  %35 = load ptr, ptr %5, align 8, !tbaa !50
  %36 = load ptr, ptr %3, align 8, !tbaa !11
  %37 = call ptr %35(ptr noundef %36)
  store ptr %37, ptr %8, align 8, !tbaa !98
  %38 = load ptr, ptr %8, align 8, !tbaa !98
  %39 = icmp eq ptr %38, null
  br i1 %39, label %41, label %40

40:                                               ; preds = %34
  call void (ptr, i32, ptr, ...) @test_error(ptr noundef @.str, i32 noundef 802, ptr noundef @.str.66)
  store i32 0, ptr %13, align 4, !tbaa !13
  br label %41

41:                                               ; preds = %40, %34
  %42 = load ptr, ptr %4, align 8, !tbaa !50
  %43 = load ptr, ptr %3, align 8, !tbaa !11
  %44 = load ptr, ptr %7, align 8, !tbaa !98
  %45 = call i32 %42(ptr noundef %43, ptr noundef %44)
  %46 = icmp ne i32 %45, 0
  br i1 %46, label %48, label %47

47:                                               ; preds = %41
  call void (ptr, i32, ptr, ...) @test_error(ptr noundef @.str, i32 noundef 802, ptr noundef @.str.67)
  store i32 0, ptr %13, align 4, !tbaa !13
  br label %48

48:                                               ; preds = %47, %41
  store ptr null, ptr %6, align 8, !tbaa !98
  %49 = load ptr, ptr %5, align 8, !tbaa !50
  %50 = load ptr, ptr %3, align 8, !tbaa !11
  %51 = call ptr %49(ptr noundef %50)
  store ptr %51, ptr %8, align 8, !tbaa !98
  %52 = load ptr, ptr %8, align 8, !tbaa !98
  %53 = load ptr, ptr %7, align 8, !tbaa !98
  %54 = icmp ne ptr %52, %53
  br i1 %54, label %55, label %56

55:                                               ; preds = %48
  call void (ptr, i32, ptr, ...) @test_error(ptr noundef @.str, i32 noundef 802, ptr noundef @.str.68)
  store i32 0, ptr %13, align 4, !tbaa !13
  br label %56

56:                                               ; preds = %55, %48
  %57 = load ptr, ptr %4, align 8, !tbaa !50
  %58 = load ptr, ptr %3, align 8, !tbaa !11
  %59 = load ptr, ptr %10, align 8, !tbaa !98
  %60 = call i32 %57(ptr noundef %58, ptr noundef %59)
  %61 = icmp ne i32 %60, 0
  br i1 %61, label %63, label %62

62:                                               ; preds = %56
  call void (ptr, i32, ptr, ...) @test_error(ptr noundef @.str, i32 noundef 802, ptr noundef @.str.69)
  store i32 0, ptr %13, align 4, !tbaa !13
  br label %63

63:                                               ; preds = %62, %56
  store ptr null, ptr %9, align 8, !tbaa !98
  %64 = load ptr, ptr %5, align 8, !tbaa !50
  %65 = load ptr, ptr %3, align 8, !tbaa !11
  %66 = call ptr %64(ptr noundef %65)
  store ptr %66, ptr %11, align 8, !tbaa !98
  %67 = load ptr, ptr %11, align 8, !tbaa !98
  %68 = icmp eq ptr %67, null
  br i1 %68, label %69, label %70

69:                                               ; preds = %63
  call void (ptr, i32, ptr, ...) @test_error(ptr noundef @.str, i32 noundef 802, ptr noundef @.str.70)
  store i32 0, ptr %13, align 4, !tbaa !13
  br label %70

70:                                               ; preds = %69, %63
  %71 = load ptr, ptr %11, align 8, !tbaa !98
  %72 = load ptr, ptr %10, align 8, !tbaa !98
  %73 = icmp ne ptr %71, %72
  br i1 %73, label %74, label %75

74:                                               ; preds = %70
  call void (ptr, i32, ptr, ...) @test_error(ptr noundef @.str, i32 noundef 802, ptr noundef @.str.71)
  store i32 0, ptr %13, align 4, !tbaa !13
  br label %75

75:                                               ; preds = %74, %70
  %76 = load ptr, ptr %5, align 8, !tbaa !50
  %77 = load ptr, ptr %3, align 8, !tbaa !11
  %78 = call ptr %76(ptr noundef %77)
  store ptr %78, ptr %12, align 8, !tbaa !98
  %79 = load ptr, ptr %12, align 8, !tbaa !98
  %80 = icmp eq ptr %79, null
  br i1 %80, label %81, label %82

81:                                               ; preds = %75
  call void (ptr, i32, ptr, ...) @test_error(ptr noundef @.str, i32 noundef 802, ptr noundef @.str.72)
  store i32 0, ptr %13, align 4, !tbaa !13
  br label %82

82:                                               ; preds = %81, %75
  %83 = load ptr, ptr %12, align 8, !tbaa !98
  %84 = load ptr, ptr %11, align 8, !tbaa !98
  %85 = icmp ne ptr %83, %84
  br i1 %85, label %86, label %87

86:                                               ; preds = %82
  call void (ptr, i32, ptr, ...) @test_error(ptr noundef @.str, i32 noundef 802, ptr noundef @.str.73)
  store i32 0, ptr %13, align 4, !tbaa !13
  br label %87

87:                                               ; preds = %86, %82
  %88 = call i64 @ERR_peek_error()
  %89 = trunc i64 %88 to i32
  %90 = call i32 @test_int_eq(ptr noundef @.str, i32 noundef 802, ptr noundef @.str.62, ptr noundef @.str.63, i32 noundef %89, i32 noundef 0)
  %91 = icmp ne i32 %90, 0
  br i1 %91, label %93, label %92

92:                                               ; preds = %87
  store i32 0, ptr %13, align 4, !tbaa !13
  br label %93

93:                                               ; preds = %92, %87
  %94 = load ptr, ptr %6, align 8, !tbaa !98
  %95 = call ptr @ossl_check_ASN1_UTF8STRING_sk_type(ptr noundef %94)
  call void @OPENSSL_sk_free(ptr noundef %95)
  %96 = load ptr, ptr %9, align 8, !tbaa !98
  %97 = call ptr @ossl_check_ASN1_UTF8STRING_sk_type(ptr noundef %96)
  call void @OPENSSL_sk_free(ptr noundef %97)
  %98 = load i32, ptr %13, align 4, !tbaa !13
  %99 = icmp ne i32 %98, 0
  %100 = zext i1 %99 to i32
  %101 = call i32 @test_true(ptr noundef @.str, i32 noundef 802, ptr noundef @.str.74, i32 noundef %100)
  call void @llvm.lifetime.end.p0(i64 4, ptr %13) #5
  call void @llvm.lifetime.end.p0(i64 8, ptr %12) #5
  call void @llvm.lifetime.end.p0(i64 8, ptr %11) #5
  call void @llvm.lifetime.end.p0(i64 8, ptr %10) #5
  call void @llvm.lifetime.end.p0(i64 8, ptr %9) #5
  call void @llvm.lifetime.end.p0(i64 8, ptr %8) #5
  call void @llvm.lifetime.end.p0(i64 8, ptr %7) #5
  call void @llvm.lifetime.end.p0(i64 8, ptr %6) #5
  call void @llvm.lifetime.end.p0(i64 8, ptr %5) #5
  call void @llvm.lifetime.end.p0(i64 8, ptr %4) #5
  call void @llvm.lifetime.end.p0(i64 8, ptr %3) #5
  ret i32 %101
}

; Function Attrs: nounwind uwtable
define internal i32 @test_CTX_set0_get0_statusString() #0 {
  %1 = alloca i32, align 4
  %2 = alloca ptr, align 8
  %3 = alloca i32, align 4
  %4 = alloca i32, align 4
  call void @llvm.lifetime.start.p0(i64 8, ptr %2) #5
  %5 = call ptr @set_up(ptr noundef @.str.41)
  store ptr %5, ptr %2, align 8, !tbaa !15
  call void @llvm.lifetime.start.p0(i64 4, ptr %3) #5
  store i32 0, ptr %3, align 4, !tbaa !13
  %6 = load ptr, ptr %2, align 8, !tbaa !15
  %7 = icmp eq ptr %6, null
  br i1 %7, label %8, label %9

8:                                                ; preds = %0
  store i32 0, ptr %1, align 4
  store i32 1, ptr %4, align 4
  br label %18

9:                                                ; preds = %0
  %10 = load ptr, ptr %2, align 8, !tbaa !15
  %11 = icmp ne ptr %10, null
  br i1 %11, label %12, label %16

12:                                               ; preds = %9
  %13 = load ptr, ptr %2, align 8, !tbaa !15
  %14 = call i32 @execute_CTX_set0_get0_statusString(ptr noundef %13)
  store i32 %14, ptr %3, align 4, !tbaa !13
  %15 = load ptr, ptr %2, align 8, !tbaa !15
  call void @tear_down(ptr noundef %15)
  br label %16

16:                                               ; preds = %12, %9
  %17 = load i32, ptr %3, align 4, !tbaa !13
  store i32 %17, ptr %1, align 4
  store i32 1, ptr %4, align 4
  br label %18

18:                                               ; preds = %16, %8
  call void @llvm.lifetime.end.p0(i64 4, ptr %3) #5
  call void @llvm.lifetime.end.p0(i64 8, ptr %2) #5
  %19 = load i32, ptr %1, align 4
  ret i32 %19
}