; Function Attrs: nounwind uwtable
define internal i32 @test_CTX_set0_get0_statusString() #1 {
  %1 = tail call fastcc ptr @set_up(ptr noundef nonnull @.str.41)
  %2 = icmp eq ptr %1, null
  br i1 %2, label %48, label %3

3:                                                ; preds = %0
  %4 = getelementptr i8, ptr %1, i64 8
  %.val = load ptr, ptr %4, align 8, !tbaa !4
  %5 = tail call ptr @OPENSSL_sk_new_null() #6
  %6 = tail call ptr @OPENSSL_sk_new_null() #6
  %7 = tail call i64 @ERR_peek_error() #6
  %8 = trunc i64 %7 to i32
  %9 = tail call i32 @test_int_eq(ptr noundef nonnull @.str, i32 noundef 802, ptr noundef nonnull @.str.62, ptr noundef nonnull @.str.63, i32 noundef %8, i32 noundef 0) #6
  tail call void @ERR_clear_error() #6
  %10 = tail call ptr @OSSL_CMP_CTX_get0_statusString(ptr noundef null) #6
  %.not29.i = icmp eq ptr %10, null
  br i1 %.not29.i, label %11, label %14

11:                                               ; preds = %3
  %.not.i = icmp ne i32 %9, 0
  %spec.select.i = zext i1 %.not.i to i32
  %12 = tail call i64 @ERR_peek_error() #6
  %13 = icmp eq i64 %12, 0
  br i1 %13, label %14, label %15

14:                                               ; preds = %11, %3
  tail call void (ptr, i32, ptr, ...) @test_error(ptr noundef nonnull @.str, i32 noundef 802, ptr noundef nonnull @.str.65) #6
  br label %15

15:                                               ; preds = %14, %11
  %.1.i = phi i32 [ 0, %14 ], [ %spec.select.i, %11 ]
  tail call void @ERR_clear_error() #6
  %16 = tail call ptr @OSSL_CMP_CTX_get0_statusString(ptr noundef %.val) #6
  %17 = icmp eq ptr %16, null
  br i1 %17, label %19, label %18

18:                                               ; preds = %15
  tail call void (ptr, i32, ptr, ...) @test_error(ptr noundef nonnull @.str, i32 noundef 802, ptr noundef nonnull @.str.66) #6
  br label %19

19:                                               ; preds = %18, %15
  %.2.i = phi i32 [ %.1.i, %15 ], [ 0, %18 ]
  %20 = tail call i32 @ossl_cmp_ctx_set0_statusString(ptr noundef %.val, ptr noundef %5) #6
  %.not30.i = icmp eq i32 %20, 0
  br i1 %.not30.i, label %21, label %22

21:                                               ; preds = %19
  tail call void (ptr, i32, ptr, ...) @test_error(ptr noundef nonnull @.str, i32 noundef 802, ptr noundef nonnull @.str.67) #6
  br label %22

22:                                               ; preds = %21, %19
  %.3.i = phi i32 [ %.2.i, %19 ], [ 0, %21 ]
  %23 = tail call ptr @OSSL_CMP_CTX_get0_statusString(ptr noundef %.val) #6
  %.not31.i = icmp eq ptr %23, %5
  br i1 %.not31.i, label %25, label %24

24:                                               ; preds = %22
  tail call void (ptr, i32, ptr, ...) @test_error(ptr noundef nonnull @.str, i32 noundef 802, ptr noundef nonnull @.str.68) #6
  br label %25

25:                                               ; preds = %24, %22
  %.4.i = phi i32 [ 0, %24 ], [ %.3.i, %22 ]
  %26 = tail call i32 @ossl_cmp_ctx_set0_statusString(ptr noundef %.val, ptr noundef %6) #6
  %.not32.i = icmp eq i32 %26, 0
  br i1 %.not32.i, label %27, label %28

27:                                               ; preds = %25
  tail call void (ptr, i32, ptr, ...) @test_error(ptr noundef nonnull @.str, i32 noundef 802, ptr noundef nonnull @.str.69) #6
  br label %28

28:                                               ; preds = %27, %25
  %.5.i = phi i32 [ %.4.i, %25 ], [ 0, %27 ]
  %29 = tail call ptr @OSSL_CMP_CTX_get0_statusString(ptr noundef %.val) #6
  %30 = icmp eq ptr %29, null
  br i1 %30, label %31, label %32

31:                                               ; preds = %28
  tail call void (ptr, i32, ptr, ...) @test_error(ptr noundef nonnull @.str, i32 noundef 802, ptr noundef nonnull @.str.70) #6
  br label %32

32:                                               ; preds = %31, %28
  %.6.i = phi i32 [ 0, %31 ], [ %.5.i, %28 ]
  %.not33.i = icmp eq ptr %29, %6
  br i1 %.not33.i, label %34, label %33

33:                                               ; preds = %32
  tail call void (ptr, i32, ptr, ...) @test_error(ptr noundef nonnull @.str, i32 noundef 802, ptr noundef nonnull @.str.71) #6
  br label %34

34:                                               ; preds = %33, %32
  %.7.i = phi i32 [ 0, %33 ], [ %.6.i, %32 ]
  %35 = tail call ptr @OSSL_CMP_CTX_get0_statusString(ptr noundef %.val) #6
  %36 = icmp eq ptr %35, null
  br i1 %36, label %37, label %38

37:                                               ; preds = %34
  tail call void (ptr, i32, ptr, ...) @test_error(ptr noundef nonnull @.str, i32 noundef 802, ptr noundef nonnull @.str.72) #6
  br label %38

38:                                               ; preds = %37, %34
  %.8.i = phi i32 [ 0, %37 ], [ %.7.i, %34 ]
  %.not34.i = icmp eq ptr %35, %29
  br i1 %.not34.i, label %tear_down.exit, label %39

39:                                               ; preds = %38
  tail call void (ptr, i32, ptr, ...) @test_error(ptr noundef nonnull @.str, i32 noundef 802, ptr noundef nonnull @.str.73) #6
  br label %tear_down.exit

tear_down.exit:                                   ; preds = %38, %39
  %.9.i = phi i32 [ 0, %39 ], [ %.8.i, %38 ]
  %40 = tail call i64 @ERR_peek_error() #6
  %41 = trunc i64 %40 to i32
  %42 = tail call i32 @test_int_eq(ptr noundef nonnull @.str, i32 noundef 802, ptr noundef nonnull @.str.62, ptr noundef nonnull @.str.63, i32 noundef %41, i32 noundef 0) #6
  %.not35.i = icmp ne i32 %42, 0
  tail call void @OPENSSL_sk_free(ptr noundef null) #6
  tail call void @OPENSSL_sk_free(ptr noundef null) #6
  %43 = icmp ne i32 %.9.i, 0
  %44 = select i1 %.not35.i, i1 %43, i1 false
  %45 = zext i1 %44 to i32
  %46 = tail call i32 @test_true(ptr noundef nonnull @.str, i32 noundef 802, ptr noundef nonnull @.str.74, i32 noundef %45) #6
  %47 = load ptr, ptr %4, align 8, !tbaa !4
  tail call void @OSSL_CMP_CTX_free(ptr noundef %47) #6
  tail call void @CRYPTO_free(ptr noundef nonnull %1, ptr noundef nonnull @.str, i32 noundef 25) #6
  br label %48

48:                                               ; preds = %0, %tear_down.exit
  %.05 = phi i32 [ %46, %tear_down.exit ], [ 0, %0 ]
  ret i32 %.05
}